target datalayout = "e-m:e-p270:32:32-p271:32:32-p272:64:64-i64:64-i128:128-f80:128-n8:16:32:64-S128"
target triple = "x86_64-pc-linux-gnu"

%struct.png_struct_def = type { [1 x %struct.__jmp_buf_tag], ptr, ptr, i64, ptr, ptr, ptr, ptr, ptr, ptr, ptr, ptr, ptr, i8, i8, i32, i32, i32, i32, %struct.z_stream_s, ptr, i32, i32, i32, i32, i32, i32, i32, i32, i32, i32, i32, i32, i32, i32, i32, i32, i32, i32, i32, i32, i64, i32, i32, i32, ptr, ptr, ptr, ptr, i64, i32, i32, ptr, i16, i32, i16, i8, i8, i8, i8, i8, i8, i8, i8, i8, i8, i8, i8, i8, i8, i8, i16, i8, i32, %struct.png_color_16_struct, %struct.png_color_16_struct, ptr, i32, i32, i32, i32, ptr, ptr, ptr, ptr, ptr, ptr, %struct.png_color_8_struct, %struct.png_color_8_struct, ptr, %struct.png_color_16_struct, ptr, ptr, ptr, ptr, ptr, ptr, ptr, ptr, ptr, i32, i32, i64, i64, i64, i64, i32, i32, ptr, ptr, i32, [29 x i8], i32, ptr, ptr, i32, i32, ptr, i8, i8, i16, i16, ptr, i32, i8, ptr, ptr, ptr, ptr, ptr, ptr, ptr, i8, i32, i32, i32, i64, %struct.png_unknown_chunk_t, i64, ptr, i64, i32, i32, ptr, [4 x ptr], %struct.png_colorspace }
%struct.__jmp_buf_tag = type { [8 x i64], i32, %struct.__sigset_t }
%struct.__sigset_t = type { [16 x i64] }
%struct.z_stream_s = type { ptr, i32, i64, ptr, i32, i64, ptr, ptr, ptr, ptr, ptr, i32, i64, i64 }
%struct.png_color_8_struct = type { i8, i8, i8, i8, i8 }
%struct.png_color_16_struct = type { i8, i16, i16, i16, i16 }
%struct.png_unknown_chunk_t = type { [5 x i8], ptr, i64, i8 }
%struct.png_colorspace = type { i32, %struct.png_xy, %struct.png_XYZ, i16, i16 }
%struct.png_xy = type { i32, i32, i32, i32, i32, i32, i32, i32 }
%struct.png_XYZ = type { i32, i32, i32, i32, i32, i32, i32, i32, i32 }
%struct.png_image = type { ptr, i32, i32, i32, i32, i32, i32, i32, [64 x i8] }
%struct.png_control = type { ptr, ptr, ptr, ptr, i64, i8 }
%struct.png_image_read_control = type { ptr, ptr, i32, ptr, ptr, ptr, ptr, i64, i32, i32, i32 }

@png_sRGB_table = external constant [256 x i16], align 16
@.str.50 = private unnamed_addr constant [37 x i8] c"unexpected encoding (internal error)\00", align 1

; Function Attrs: nounwind uwtable
define internal i32 @png_gamma_not_sRGB(i32 noundef %0) #0 {
  %2 = alloca i32, align 4
  %3 = alloca i32, align 4
  store i32 %0, ptr %3, align 4
  %4 = load i32, ptr %3, align 4
  %5 = icmp slt i32 %4, 100000
  br i1 %5, label %6, label %16

6:                                                ; preds = %1
  %7 = load i32, ptr %3, align 4
  %8 = icmp eq i32 %7, 0
  br i1 %8, label %9, label %10

9:                                                ; preds = %6
  store i32 0, ptr %2, align 4
  br label %17

10:                                               ; preds = %6
  %11 = load i32, ptr %3, align 4
  %12 = mul nsw i32 %11, 11
  %13 = add nsw i32 %12, 2
  %14 = sdiv i32 %13, 5
  %15 = call i32 @png_gamma_significant(i32 noundef %14)
  store i32 %15, ptr %2, align 4
  br label %17

16:                                               ; preds = %1
  store i32 1, ptr %2, align 4
  br label %17

17:                                               ; preds = %16, %10, %9
  %18 = load i32, ptr %2, align 4
  ret i32 %18
}

; Function Attrs: nounwind uwtable
define internal void @set_file_encoding(ptr noundef %0) #0 {
  %2 = alloca ptr, align 8
  %3 = alloca i32, align 4
  store ptr %0, ptr %2, align 8
  %4 = load ptr, ptr %2, align 8
  %5 = getelementptr inbounds %struct.png_image_read_control, ptr %4, i32 0, i32 0
  %6 = load ptr, ptr %5, align 8
  %7 = getelementptr inbounds %struct.png_image, ptr %6, i32 0, i32 0
  %8 = load ptr, ptr %7, align 8
  %9 = getelementptr inbounds %struct.png_control, ptr %8, i32 0, i32 0
  %10 = load ptr, ptr %9, align 8
  %11 = getelementptr inbounds %struct.png_struct_def, ptr %10, i32 0, i32 145
  %12 = getelementptr inbounds %struct.png_colorspace, ptr %11, i32 0, i32 0
  %13 = load i32, ptr %12, align 8
  store i32 %13, ptr %3, align 4
  %14 = load i32, ptr %3, align 4
  %15 = call i32 @png_gamma_significant(i32 noundef %14)
  %16 = icmp ne i32 %15, 0
  br i1 %16, label %17, label %32

17:                                               ; preds = %1
  %18 = load i32, ptr %3, align 4
  %19 = call i32 @png_gamma_not_sRGB(i32 noundef %18)
  %20 = icmp ne i32 %19, 0
  br i1 %20, label %21, label %28

21:                                               ; preds = %17
  %22 = load ptr, ptr %2, align 8
  %23 = getelementptr inbounds %struct.png_image_read_control, ptr %22, i32 0, i32 8
  store i32 3, ptr %23, align 8
  %24 = load i32, ptr %3, align 4
  %25 = call i32 @png_reciprocal(i32 noundef %24)
  %26 = load ptr, ptr %2, align 8
  %27 = getelementptr inbounds %struct.png_image_read_control, ptr %26, i32 0, i32 9
  store i32 %25, ptr %27, align 4
  br label %31

28:                                               ; preds = %17
  %29 = load ptr, ptr %2, align 8
  %30 = getelementptr inbounds %struct.png_image_read_control, ptr %29, i32 0, i32 8
  store i32 1, ptr %30, align 8
  br label %31

31:                                               ; preds = %28, %21
  br label %35

32:                                               ; preds = %1
  %33 = load ptr, ptr %2, align 8
  %34 = getelementptr inbounds %struct.png_image_read_control, ptr %33, i32 0, i32 8
  store i32 4, ptr %34, align 8
  br label %35

35:                                               ; preds = %32, %31
  ret void
}

; Function Attrs: nounwind uwtable
define internal i32 @decode_gamma(ptr noundef %0, i32 noundef %1, i32 noundef %2) #0 {
  %4 = alloca ptr, align 8
  %5 = alloca i32, align 4
  %6 = alloca i32, align 4
  store ptr %0, ptr %4, align 8
  store i32 %1, ptr %5, align 4
  store i32 %2, ptr %6, align 4
  %7 = load i32, ptr %6, align 4
  %8 = icmp eq i32 %7, 3
  br i1 %8, label %9, label %13

9:                                                ; preds = %3
  %10 = load ptr, ptr %4, align 8
  %11 = getelementptr inbounds %struct.png_image_read_control, ptr %10, i32 0, i32 8
  %12 = load i32, ptr %11, align 8
  store i32 %12, ptr %6, align 4
  br label %13

13:                                               ; preds = %9, %3
  %14 = load i32, ptr %6, align 4
  %15 = icmp eq i32 %14, 0
  br i1 %15, label %16, label %21

16:                                               ; preds = %13
  %17 = load ptr, ptr %4, align 8
  call void @set_file_encoding(ptr noundef %17)
  %18 = load ptr, ptr %4, align 8
  %19 = getelementptr inbounds %struct.png_image_read_control, ptr %18, i32 0, i32 8
  %20 = load i32, ptr %19, align 8
  store i32 %20, ptr %6, align 4
  br label %21

21:                                               ; preds = %16, %13
  %22 = load i32, ptr %6, align 4
  switch i32 %22, label %41 [
    i32 3, label %23
    i32 1, label %31
    i32 2, label %37
    i32 4, label %38
  ]

23:                                               ; preds = %21
  %24 = load i32, ptr %5, align 4
  %25 = mul i32 %24, 257
  %26 = load ptr, ptr %4, align 8
  %27 = getelementptr inbounds %struct.png_image_read_control, ptr %26, i32 0, i32 9
  %28 = load i32, ptr %27, align 4
  %29 = call zeroext i16 @png_gamma_16bit_correct(i32 noundef %25, i32 noundef %28)
  %30 = zext i16 %29 to i32
  store i32 %30, ptr %5, align 4
  br label %49

31:                                               ; preds = %21
  %32 = load i32, ptr %5, align 4
  %33 = zext i32 %32 to i64
  %34 = getelementptr inbounds [256 x i16], ptr @png_sRGB_table, i64 0, i64 %33
  %35 = load i16, ptr %34, align 2
  %36 = zext i16 %35 to i32
  store i32 %36, ptr %5, align 4
  br label %49

37:                                               ; preds = %21
  br label %49

38:                                               ; preds = %21
  %39 = load i32, ptr %5, align 4
  %40 = mul i32 %39, 257
  store i32 %40, ptr %5, align 4
  br label %49

41:                                               ; preds = %21
  %42 = load ptr, ptr %4, align 8
  %43 = getelementptr inbounds %struct.png_image_read_control, ptr %42, i32 0, i32 0
  %44 = load ptr, ptr %43, align 8
  %45 = getelementptr inbounds %struct.png_image, ptr %44, i32 0, i32 0
  %46 = load ptr, ptr %45, align 8
  %47 = getelementptr inbounds %struct.png_control, ptr %46, i32 0, i32 0
  %48 = load ptr, ptr %47, align 8
  call void @png_error(ptr noundef %48, ptr noundef @.str.50) #8
  unreachable

49:                                               ; preds = %38, %37, %31, %23
  %50 = load i32, ptr %5, align 4
  ret i32 %50
}