; Function Attrs: nounwind uwtable
define internal fastcc range(i32 0, 16842496) i32 @decode_gamma(ptr nocapture noundef %0, i32 noundef %1, i32 noundef %2) unnamed_addr #0 {
  %4 = icmp eq i32 %2, 3
  br i1 %4, label %5, label %8

5:                                                ; preds = %3
  %6 = getelementptr inbounds i8, ptr %0, i64 64
  %7 = load i32, ptr %6, align 8
  br label %8

8:                                                ; preds = %5, %3
  %.0 = phi i32 [ %7, %5 ], [ %2, %3 ]
  %9 = icmp eq i32 %.0, 0
  br i1 %9, label %10, label %set_file_encoding.exit

10:                                               ; preds = %8
  %11 = load ptr, ptr %0, align 8
  %12 = load ptr, ptr %11, align 8
  %13 = load ptr, ptr %12, align 8
  %14 = getelementptr inbounds i8, ptr %13, i64 1184
  %15 = load i32, ptr %14, align 8
  %16 = tail call i32 @png_gamma_significant(i32 noundef %15) #11
  %.not.i = icmp eq i32 %16, 0
  br i1 %.not.i, label %set_file_encoding.exit.thread14, label %17

17:                                               ; preds = %10
  %18 = icmp slt i32 %15, 100000
  br i1 %18, label %19, label %png_gamma_not_sRGB.exit.thread10.i

19:                                               ; preds = %17
  %20 = icmp eq i32 %15, 0
  br i1 %20, label %set_file_encoding.exit.thread, label %png_gamma_not_sRGB.exit.i

png_gamma_not_sRGB.exit.i:                        ; preds = %19
  %21 = mul nsw i32 %15, 11
  %22 = add nsw i32 %21, 2
  %23 = sdiv i32 %22, 5
  %24 = tail call i32 @png_gamma_significant(i32 noundef %23) #11
  %.not7.i = icmp eq i32 %24, 0
  br i1 %.not7.i, label %set_file_encoding.exit.thread, label %png_gamma_not_sRGB.exit.thread10.i

png_gamma_not_sRGB.exit.thread10.i:               ; preds = %png_gamma_not_sRGB.exit.i, %17
  %25 = getelementptr inbounds i8, ptr %0, i64 64
  store i32 3, ptr %25, align 8
  %26 = tail call i32 @png_reciprocal(i32 noundef %15) #11
  %27 = getelementptr inbounds i8, ptr %0, i64 68
  store i32 %26, ptr %27, align 4
  %.pre = load i32, ptr %25, align 8
  br label %set_file_encoding.exit

set_file_encoding.exit.thread:                    ; preds = %19, %png_gamma_not_sRGB.exit.i
  %28 = getelementptr inbounds i8, ptr %0, i64 64
  store i32 1, ptr %28, align 8
  br label %36

set_file_encoding.exit.thread14:                  ; preds = %10
  %29 = getelementptr inbounds i8, ptr %0, i64 64
  store i32 4, ptr %29, align 8
  br label %41

set_file_encoding.exit:                           ; preds = %png_gamma_not_sRGB.exit.thread10.i, %8
  %.1 = phi i32 [ %.0, %8 ], [ %.pre, %png_gamma_not_sRGB.exit.thread10.i ]
  switch i32 %.1, label %43 [
    i32 3, label %30
    i32 1, label %36
    i32 2, label %47
    i32 4, label %41
  ]

30:                                               ; preds = %set_file_encoding.exit
  %31 = mul nuw nsw i32 %1, 257
  %32 = getelementptr inbounds i8, ptr %0, i64 68
  %33 = load i32, ptr %32, align 4
  %34 = tail call zeroext i16 @png_gamma_16bit_correct(i32 noundef %31, i32 noundef %33) #11
  %35 = zext i16 %34 to i32
  br label %47

36:                                               ; preds = %set_file_encoding.exit.thread, %set_file_encoding.exit
  %37 = zext nneg i32 %1 to i64
  %38 = getelementptr inbounds [256 x i16], ptr @png_sRGB_table, i64 0, i64 %37
  %39 = load i16, ptr %38, align 2
  %40 = zext i16 %39 to i32
  br label %47

41:                                               ; preds = %set_file_encoding.exit.thread14, %set_file_encoding.exit
  %42 = mul nuw nsw i32 %1, 257
  br label %47

43:                                               ; preds = %set_file_encoding.exit
  %44 = load ptr, ptr %0, align 8
  %45 = load ptr, ptr %44, align 8
  %46 = load ptr, ptr %45, align 8
  tail call void @png_error(ptr noundef %46, ptr noundef nonnull @.str.50) #12
  unreachable

47:                                               ; preds = %set_file_encoding.exit, %41, %36, %30
  %.011 = phi i32 [ %42, %41 ], [ %1, %set_file_encoding.exit ], [ %40, %36 ], [ %35, %30 ]
  ret i32 %.011
}